; Function Attrs: mustprogress uwtable
define hidden noundef nonnull align 8 dereferenceable(116) ptr @_ZN4cvc58internal11NodeBuilder6appendERKNS0_8TypeNodeE(ptr noundef nonnull returned align 8 dereferenceable(116) %this, ptr nocapture noundef nonnull readonly align 8 dereferenceable(8) %typeNode) local_unnamed_addr #3 align 2 {
entry:
  %d_nv.i.i = getelementptr inbounds i8, ptr %this, i64 96
  %0 = load ptr, ptr %d_nv.i.i, align 8
  %d_nchildren.i.i = getelementptr inbounds i8, ptr %0, i64 12
  %bf.load.i.i = load i32, ptr %d_nchildren.i.i, align 4
  %bf.clear.i.i = and i32 %bf.load.i.i, 67108863
  %d_nvMaxChildren.i.i = getelementptr inbounds i8, ptr %this, i64 112
  %1 = load i32, ptr %d_nvMaxChildren.i.i, align 8
  %cmp.i.i = icmp eq i32 %bf.clear.i.i, %1
  br i1 %cmp.i.i, label %if.then.i, label %_ZN4cvc58internal11NodeBuilder30allocateNvIfNecessaryForAppendEv.exit

if.then.i:                                        ; preds = %entry
  %2 = shl nuw nsw i32 %bf.clear.i.i, 1
  %3 = tail call i32 @llvm.umin.i32(i32 %2, i32 67108863)
  %cond.i.i = zext nneg i32 %3 to i64
  tail call void @_ZN4cvc58internal11NodeBuilder7reallocEm(ptr noundef nonnull align 8 dereferenceable(116) %this, i64 noundef %cond.i.i)
  br label %_ZN4cvc58internal11NodeBuilder30allocateNvIfNecessaryForAppendEv.exit

_ZN4cvc58internal11NodeBuilder30allocateNvIfNecessaryForAppendEv.exit: ; preds = %entry, %if.then.i
  %4 = load ptr, ptr %typeNode, align 8
  %bf.load.i = load i64, ptr %4, align 8
  %bf.lshr.i = lshr i64 %bf.load.i, 40
  %5 = trunc i64 %bf.lshr.i to i32
  %bf.cast.i = and i32 %5, 1048575
  %cmp.i = icmp ult i32 %bf.cast.i, 1048574
  br i1 %cmp.i, label %if.then.i2, label %if.else.i

if.then.i2:                                       ; preds = %_ZN4cvc58internal11NodeBuilder30allocateNvIfNecessaryForAppendEv.exit
  %bf.value.i = add i64 %bf.load.i, 1099511627776
  %bf.shl.i = and i64 %bf.value.i, 1152920405095219200
  %bf.clear7.i = and i64 %bf.load.i, -1152920405095219201
  %bf.set.i = or disjoint i64 %bf.shl.i, %bf.clear7.i
  store i64 %bf.set.i, ptr %4, align 8
  br label %_ZN4cvc58internal4expr9NodeValue3incEv.exit

if.else.i:                                        ; preds = %_ZN4cvc58internal11NodeBuilder30allocateNvIfNecessaryForAppendEv.exit
  %cmp12.i = icmp eq i32 %bf.cast.i, 1048574
  br i1 %cmp12.i, label %if.then13.i, label %_ZN4cvc58internal4expr9NodeValue3incEv.exit

if.then13.i:                                      ; preds = %if.else.i
  %bf.set23.i = or i64 %bf.load.i, 1152920405095219200
  store i64 %bf.set23.i, ptr %4, align 8
  tail call void @_ZN4cvc58internal4expr9NodeValue20markRefCountMaxedOutEv(ptr noundef nonnull align 8 dereferenceable(16) %4)
  br label %_ZN4cvc58internal4expr9NodeValue3incEv.exit

_ZN4cvc58internal4expr9NodeValue3incEv.exit:      ; preds = %if.then.i2, %if.else.i, %if.then13.i
  %6 = load ptr, ptr %d_nv.i.i, align 8
  %d_children = getelementptr inbounds i8, ptr %6, i64 16
  %d_nchildren = getelementptr inbounds i8, ptr %6, i64 12
  %bf.load = load i32, ptr %d_nchildren, align 4
  %bf.clear = and i32 %bf.load, 67108863
  %inc = add i32 %bf.load, 1
  %bf.value = and i32 %inc, 67108863
  %bf.clear5 = and i32 %bf.load, -67108864
  %bf.set = or disjoint i32 %bf.value, %bf.clear5
  store i32 %bf.set, ptr %d_nchildren, align 4
  %idxprom = zext nneg i32 %bf.clear to i64
  %arrayidx = getelementptr inbounds [0 x ptr], ptr %d_children, i64 0, i64 %idxprom
  store ptr %4, ptr %arrayidx, align 8
  ret ptr %this
}